target datalayout = "e-m:e-p270:32:32-p271:32:32-p272:64:64-i64:64-i128:128-f80:128-n8:16:32:64-S128"
target triple = "x86_64-pc-linux-gnu"

; Function Attrs: mustprogress uwtable
define noundef ptr @_ZN3net15QuicSpdySession17GetSpdyDataStreamEj(ptr noundef nonnull align 8 dereferenceable(2057) %0, i32 noundef %1) #0 align 2 {
  %3 = alloca ptr, align 8
  %4 = alloca i32, align 4
  store ptr %0, ptr %3, align 8, !tbaa !3
  store i32 %1, ptr %4, align 4, !tbaa !115
  %5 = load ptr, ptr %3, align 8
  %6 = load i32, ptr %4, align 4, !tbaa !115
  %7 = call noundef ptr @_ZN3net11QuicSession24GetOrCreateDynamicStreamEj(ptr noundef nonnull align 8 dereferenceable(2044) %5, i32 noundef %6)
  ret ptr %7
}

; Function Attrs: mustprogress uwtable
define void @_ZN3net15QuicSpdySession18OnStreamHeaderListEjbmRKNS_14QuicHeaderListE(ptr noundef nonnull align 8 dereferenceable(2057) %0, i32 noundef %1, i1 noundef zeroext %2, i64 noundef %3, ptr noundef nonnull align 8 dereferenceable(96) %4) unnamed_addr #0 align 2 {
  %6 = alloca ptr, align 8
  %7 = alloca i32, align 4
  %8 = alloca i8, align 1
  %9 = alloca i64, align 8
  %10 = alloca ptr, align 8
  %11 = alloca ptr, align 8
  %12 = alloca i32, align 4
  store ptr %0, ptr %6, align 8, !tbaa !3
  store i32 %1, ptr %7, align 4, !tbaa !115
  %13 = zext i1 %2 to i8
  store i8 %13, ptr %8, align 1, !tbaa !138
  store i64 %3, ptr %9, align 8, !tbaa !136
  store ptr %4, ptr %10, align 8, !tbaa !141
  %14 = load ptr, ptr %6, align 8
  call void @llvm.lifetime.start.p0(i64 8, ptr %11) #16
  %15 = load i32, ptr %7, align 4, !tbaa !115
  %16 = call noundef ptr @_ZN3net15QuicSpdySession17GetSpdyDataStreamEj(ptr noundef nonnull align 8 dereferenceable(2057) %14, i32 noundef %15)
  store ptr %16, ptr %11, align 8, !tbaa !132
  %17 = load ptr, ptr %11, align 8, !tbaa !132
  %18 = icmp ne ptr %17, null
  br i1 %18, label %20, label %19

19:                                               ; preds = %5
  store i32 1, ptr %12, align 4
  br label %29

20:                                               ; preds = %5
  %21 = load ptr, ptr %11, align 8, !tbaa !132
  %22 = load i8, ptr %8, align 1, !tbaa !138, !range !139, !noundef !140
  %23 = trunc i8 %22 to i1
  %24 = load i64, ptr %9, align 8, !tbaa !136
  %25 = load ptr, ptr %10, align 8, !tbaa !141
  %26 = load ptr, ptr %21, align 8, !tbaa !12
  %27 = getelementptr inbounds ptr, ptr %26, i64 18
  %28 = load ptr, ptr %27, align 8
  call void %28(ptr noundef nonnull align 8 dereferenceable(664) %21, i1 noundef zeroext %23, i64 noundef %24, ptr noundef nonnull align 8 dereferenceable(96) %25)
  store i32 0, ptr %12, align 4
  br label %29

29:                                               ; preds = %20, %19
  call void @llvm.lifetime.end.p0(i64 8, ptr %11) #16
  %30 = load i32, ptr %12, align 4
  switch i32 %30, label %32 [
    i32 0, label %31
    i32 1, label %31
  ]

31:                                               ; preds = %29, %29
  ret void

32:                                               ; preds = %29
  unreachable
}