; Function Attrs: mustprogress uwtable
define void @_ZN3net15QuicSpdySession18OnStreamHeaderListEjbmRKNS_14QuicHeaderListE(ptr noundef nonnull align 8 dereferenceable(2057) %0, i32 noundef %1, i1 noundef zeroext %2, i64 noundef %3, ptr noundef nonnull align 8 dereferenceable(96) %4) unnamed_addr #0 align 2 {
  %6 = tail call noundef ptr @_ZN3net11QuicSession24GetOrCreateDynamicStreamEj(ptr noundef nonnull align 8 dereferenceable(2057) %0, i32 noundef %1)
  %.not = icmp eq ptr %6, null
  br i1 %.not, label %11, label %7

7:                                                ; preds = %5
  %8 = load ptr, ptr %6, align 8, !tbaa !3
  %9 = getelementptr inbounds nuw i8, ptr %8, i64 144
  %10 = load ptr, ptr %9, align 8
  tail call void %10(ptr noundef nonnull align 8 dereferenceable(664) %6, i1 noundef zeroext %2, i64 noundef %3, ptr noundef nonnull align 8 dereferenceable(96) %4)
  br label %11

11:                                               ; preds = %5, %7
  ret void
}